target datalayout = "e-m:e-p270:32:32-p271:32:32-p272:64:64-i64:64-i128:128-f80:128-n8:16:32:64-S128"
target triple = "x86_64-pc-linux-gnu"

%"class.mbp::term_graph" = type <{ ptr, %class.ptr_vector, %class.ref_vector, %class.u_map, %class.ref_vector.2, ptr, i8, i8, [6 x i8], %class.u_map.7, %class.plugin_manager, %class.ptr_hashtable, %class.vector.16, %"class.mbp::term_graph::is_variable_proc", %class.vector.16, %class.vector.19, %"struct.mbp::term_graph::add_deq_proc", [4 x i8] }>
%class.ptr_vector = type { %class.vector }
%class.vector = type { ptr }
%class.ref_vector = type { %class.ref_vector_core }
%class.ref_vector_core = type { %class.ref_manager_wrapper, %class.ptr_vector.0 }
%class.ref_manager_wrapper = type { ptr }
%class.ptr_vector.0 = type { %class.vector.1 }
%class.vector.1 = type { ptr }
%class.u_map = type { %class.map }
%class.map = type { %class.table2map }
%class.table2map = type { %class.core_hashtable }
%class.core_hashtable = type <{ ptr, i32, i32, i32, [4 x i8] }>
%class.ref_vector.2 = type { %class.ref_vector_core.3 }
%class.ref_vector_core.3 = type { %class.ref_manager_wrapper.4, %class.ptr_vector.5 }
%class.ref_manager_wrapper.4 = type { ptr }
%class.ptr_vector.5 = type { %class.vector.6 }
%class.vector.6 = type { ptr }
%class.u_map.7 = type { %class.map.8 }
%class.map.8 = type { %class.table2map.9 }
%class.table2map.9 = type { %class.core_hashtable.10 }
%class.core_hashtable.10 = type <{ ptr, i32, i32, i32, [4 x i8] }>
%class.plugin_manager = type { %class.ptr_vector.12, %class.ptr_vector.12 }
%class.ptr_vector.12 = type { %class.vector.13 }
%class.vector.13 = type { ptr }
%class.ptr_hashtable = type { %class.core_hashtable.base.15, [4 x i8] }
%class.core_hashtable.base.15 = type <{ ptr, i32, i32, i32 }>
%"class.mbp::term_graph::is_variable_proc" = type { %class.is_variable_proc, i8, [7 x i8], %class.obj_hashtable, %class.obj_hashtable }
%class.is_variable_proc = type { ptr }
%class.obj_hashtable = type { %class.core_hashtable.base.18, [4 x i8] }
%class.core_hashtable.base.18 = type <{ ptr, i32, i32, i32 }>
%class.vector.16 = type { ptr }
%class.vector.19 = type { ptr }
%"struct.mbp::term_graph::add_deq_proc" = type { i32 }
%class.vector.101 = type { ptr }

; Function Attrs: mustprogress uwtable
define linkonce_odr hidden void @_Z7deallocIN3mbp10term_graph9projectorEEvPT_(ptr noundef %0) #4 comdat {
  %2 = alloca ptr, align 8
  store ptr %0, ptr %2, align 8, !tbaa !174
  %3 = load ptr, ptr %2, align 8, !tbaa !174
  %4 = icmp eq ptr %3, null
  br i1 %4, label %5, label %6

5:                                                ; preds = %1
  br label %9

6:                                                ; preds = %1
  %7 = load ptr, ptr %2, align 8, !tbaa !174
  call void @_ZN3mbp10term_graph9projectorD2Ev(ptr noundef nonnull align 8 dereferenceable(120) %7) #3
  %8 = load ptr, ptr %2, align 8, !tbaa !174
  call void @_ZN6memory10deallocateEPv(ptr noundef %8)
  br label %9

9:                                                ; preds = %6, %5
  ret void
}

; Function Attrs: mustprogress uwtable
define hidden void @_ZN3mbp10term_graph13get_partitionER5model(ptr dead_on_unwind noalias writable sret(%class.vector.101) align 8 %0, ptr noundef nonnull align 8 dereferenceable(244) %1, ptr noundef nonnull align 8 dereferenceable(160) %2) #4 align 2 {
  %4 = alloca ptr, align 8
  %5 = alloca ptr, align 8
  %6 = alloca ptr, align 8
  store ptr %0, ptr %4, align 8
  store ptr %1, ptr %5, align 8, !tbaa !12
  store ptr %2, ptr %6, align 8, !tbaa !309
  %7 = load ptr, ptr %5, align 8
  %8 = getelementptr inbounds nuw %"class.mbp::term_graph", ptr %7, i32 0, i32 5
  %9 = load ptr, ptr %8, align 8, !tbaa !141
  call void @_Z7deallocIN3mbp10term_graph9projectorEEvPT_(ptr noundef %9)
  %10 = call noalias noundef ptr @_ZN6memory8allocateEm(i64 noundef 120)
  call void @_ZN3mbp10term_graph9projectorC2ERS0_(ptr noundef nonnull align 8 dereferenceable(120) %10, ptr noundef nonnull align 8 dereferenceable(244) %7)
  %11 = getelementptr inbounds nuw %"class.mbp::term_graph", ptr %7, i32 0, i32 5
  store ptr %10, ptr %11, align 8, !tbaa !141
  %12 = getelementptr inbounds nuw %"class.mbp::term_graph", ptr %7, i32 0, i32 5
  %13 = load ptr, ptr %12, align 8, !tbaa !141
  %14 = load ptr, ptr %6, align 8, !tbaa !309
  call void @_ZN3mbp10term_graph9projector13get_partitionER5modelb(ptr dead_on_unwind writable sret(%class.vector.101) align 8 %0, ptr noundef nonnull align 8 dereferenceable(120) %13, ptr noundef nonnull align 8 dereferenceable(160) %14, i1 noundef zeroext false)
  ret void
}