; Function Attrs: mustprogress uwtable
define hidden void @_ZN3mbp10term_graph13get_partitionER5model(ptr dead_on_unwind noalias writable sret(%class.vector.101) align 8 %0, ptr noundef nonnull align 8 dereferenceable(244) %1, ptr noundef nonnull align 8 dereferenceable(160) %2) local_unnamed_addr #3 align 2 {
  %4 = getelementptr inbounds nuw i8, ptr %1, i64 72
  %5 = load ptr, ptr %4, align 8, !tbaa !176
  %6 = icmp eq ptr %5, null
  br i1 %6, label %_Z7deallocIN3mbp10term_graph9projectorEEvPT_.exit, label %7

7:                                                ; preds = %3
  tail call void @_ZN3mbp10term_graph9projectorD2Ev(ptr noundef nonnull align 8 dereferenceable(120) %5) #27
  tail call void @_ZN6memory10deallocateEPv(ptr noundef nonnull %5)
  br label %_Z7deallocIN3mbp10term_graph9projectorEEvPT_.exit

_Z7deallocIN3mbp10term_graph9projectorEEvPT_.exit: ; preds = %3, %7
  %8 = tail call noalias noundef ptr @_ZN6memory8allocateEm(i64 noundef 120)
  tail call void @_ZN3mbp10term_graph9projectorC2ERS0_(ptr noundef nonnull align 8 dereferenceable(120) %8, ptr noundef nonnull align 8 dereferenceable(244) %1)
  store ptr %8, ptr %4, align 8, !tbaa !176
  tail call void @_ZN3mbp10term_graph9projector13get_partitionER5modelb(ptr dead_on_unwind writable sret(%class.vector.101) align 8 %0, ptr noundef nonnull align 8 dereferenceable(120) %8, ptr noundef nonnull align 8 dereferenceable(160) %2, i1 noundef zeroext false)
  ret void
}